(dp1
S'output'
p2
S'<type \'exceptions.RuntimeError\'> Failure to connect, tried 5 times:\nTraceback (most recent call last):\n  File "D:\\web2py\\gluon\\packages\\dal\\pydal\\base.py", line 446, in __init__\n    self._adapter = ADAPTERS[self._dbname](**kwargs)\n  File "D:\\web2py\\gluon\\packages\\dal\\pydal\\adapters\\base.py", line 60, in __call__\n    obj = super(AdapterMeta, cls).__call__(*args, **kwargs)\n  File "D:\\web2py\\gluon\\packages\\dal\\pydal\\adapters\\mssql.py", line 159, in __init__\n    if do_connect: self.reconnect()\n  File "D:\\web2py\\gluon\\packages\\dal\\pydal\\connection.py", line 104, in reconnect\n    self.connection = f()\n  File "D:\\web2py\\gluon\\packages\\dal\\pydal\\adapters\\mssql.py", line 157, in connector\n    return self.driver.connect(cnxn, **driver_args)\nProgrammingError: (\'42000\', \'[42000] [Microsoft][ODBC SQL Server Driver][SQL Server]\\xce\\xde\\xb7\\xa8\\xb4\\xf2\\xbf\\xaa\\xb5\\xc7\\xc2\\xbc\\xcb\\xf9\\xc7\\xeb\\xc7\\xf3\\xb5\\xc4\\xca\\xfd\\xbe\\xdd\\xbf\\xe2 "BIDDING"\\xa1\\xa3\\xb5\\xc7\\xc2\\xbc\\xca\\xa7\\xb0\\xdc\\xa1\\xa3 (4060) (SQLDriverConnect); [01S00] [Microsoft][ODBC SQL Server Driver]\\xce\\xde\\xd0\\xa7\\xb5\\xc4\\xc1\\xac\\xbd\\xd3\\xd7\\xd6\\xb7\\xfb\\xb4\\xae\\xca\\xf4\\xd0\\xd4 (0); [42000] [Microsoft][ODBC SQL Server Driver][SQL Server]\\xce\\xde\\xb7\\xa8\\xb4\\xf2\\xbf\\xaa\\xb5\\xc7\\xc2\\xbc\\xcb\\xf9\\xc7\\xeb\\xc7\\xf3\\xb5\\xc4\\xca\\xfd\\xbe\\xdd\\xbf\\xe2 "BIDDING"\\xa1\\xa3\\xb5\\xc7\\xc2\\xbc\\xca\\xa7\\xb0\\xdc\\xa1\\xa3 (4060); [01S00] [Microsoft][ODBC SQL Server Driver]\\xce\\xde\\xd0\\xa7\\xb5\\xc4\\xc1\\xac\\xbd\\xd3\\xd7\\xd6\\xb7\\xfb\\xb4\\xae\\xca\\xf4\\xd0\\xd4 (0)\')\n'
p3
sS'layer'
p4
S'D:\\web2py\\applications\\bidding\\models\\db.py'
p5
sS'code'
p6
S"# -*- coding: utf-8 -*-\n#########################################################################\n## Define your tables below (or better in another model file) for example\nfrom gluon import DAL, Field\nimport pyodbc\n#02.\xe8\xae\xbe\xe7\xbd\xae\xe5\xad\x97\xe7\xac\xa6\xe4\xb8\xb2\xe7\xbc\xba\xe7\x9c\x81\xe7\x9a\x84\xe7\xbc\x96\xe7\xa0\x81\xef\xbc\x8c\xe5\xa6\x82\xe6\x9e\x9c\xe4\xb8\x8d\xe8\xbf\x99\xe6\xa0\xb7\xe7\x9a\x84\xe8\xaf\x9dstr\xe6\x97\xa0\xe6\xb3\x95\xe4\xbd\xbf\xe7\x94\xa8\nimport sys\nimport json\nreload(sys)\nsys.setdefaultencoding('utf-8')\nstr_db = u'mssql4://sa:1@localhost/BIDDING'\n#03.\xe8\xbf\x9e\xe6\x8e\xa5\xe9\x9c\x80\xe8\xa6\x81\xe7\x94\xa8utf8\xe5\xad\x97\xe7\xac\xa6\xe9\x9b\x86\xef\xbc\x8c\xe8\xbf\x99\xe6\xa0\xb7\xe8\xbf\x94\xe5\x9b\x9e\xe7\x9a\x84\xe4\xb8\xad\xe6\x96\x87\xe7\xbb\x93\xe6\x9e\x9c\xe5\x8f\xaf\xe7\x9b\xb4\xe6\x8e\xa5\xe8\xa7\xa3\xe7\xa0\x81\ndb = DAL(str_db,db_codec='utf-8',migrate_enabled=False)\nprint db._uri\nprint db._dbname\ndb.define_table('BankRecord',Field('Account'),Field('CompanyName'),Field('CreateDate'),Field('Money'),Field('Note'),Field('TradingTime'))\ndb.define_table('Customer',Field('Address1'),Field('Address2'),Field('CompanyName'),Field('CompanyPhone'),Field('ContactName'),Field('CreationDate'),Field('Email'),Field('EmployeeId'),Field('Fax'),Field('IsDelete'),Field('MobilePhone'),Field('Note'),Field('PassWord'),Field('Position'),Field('Type'),Field('UserName'),Field('ZipCode'))\ndb.define_table('Employee',Field('Address'),Field('Age'),Field('Code'),Field('CompanyPhone'),Field('CreationDate'),Field('DateOfBirth'),Field('Department'),Field('Email'),Field('EmergencyContactName'),Field('EmergencyContactPhone'),Field('EmergencyContactRelationship'),Field('HomePhone'),Field('IsDelete'),Field('MobilePhone'),Field('Name'),Field('Note'),Field('PassWord'),Field('Position'),Field('SexId'),Field('Type'),Field('UserName'))\ndb.define_table('Finance',Field('Activity'),Field('CreationDate'),Field('EmployeeId'),Field('Income'),Field('IsDelete'),Field('Note'),Field('ProjectCodeId'),Field('ProtocolCodeId'),Field('Spending'),Field('TargetId'),Field('TitleId'))\ndb.define_table('Log',Field('Agent'),Field('CreationDate'),Field('Ip'),Field('Kind'),Field('Note'),Field('UserId'))\ndb.define_table('Management',Field('Code'),Field('CreationDate'),Field('IsDelete'),Field('Name'))\ndb.define_table('MoneyType',Field('CreationTime'),Field('IsDelete'),Field('Name'))\ndb.define_table('ProjectCode',Field('CreationTime'),Field('EmployeeId'),Field('IsDelete'),Field('Option1'),Field('Option2'),Field('Option3'),Field('ProjectNumber'),Field('ProjectTypeId'),Field('ProtocolId'))\ndb.define_table('ProjectResource',Field('CreationTime'),Field('IsDelete'),Field('Name'))\ndb.define_table('Projects',Field('Assistant'),Field('BuyerId'),Field('ChargeRate'),Field('CreationDate'),Field('EmployeeId'),Field('EntrustMoney'),Field('IsDelete'),Field('MakeOutDate'),Field('ManagementStyleId'),Field('Note'),Field('Package'),Field('ProjectCodeId'),Field('ProjectName'),Field('ProjectSourceId'),Field('ProjectTypeId'),Field('ProtocolCodeId'),Field('SigningDate'),Field('SourcesOfFundingId'),Field('StateId'),Field('WinningCompany'),Field('WinningMoney'))\ndb.define_table('ProjectStatus',Field('CreationTime'),Field('IsDelete'),Field('Name'))\ndb.define_table('ProtocolCode',Field('CreationTime'),Field('EmployeeId'),Field('IsDelete'),Field('ProtocolNumber'),Field('TypeId'))\ndb.define_table('Suggest',Field('Content'),Field('CreationTime'),Field('IsDelete'),Field('UserId'))\ndb.define_table('Task',Field('CreationDate'),Field('Deadline'),Field('EmployeeId'),Field('IsDelete'),Field('Note'),Field('PlaceId'),Field('ProjectId'),Field('StateId'),Field('TitleId'))\ndb.define_table('TaskLocation',Field('CreationTime'),Field('IsDelete'),Field('Name'))\ndb.define_table('TaskStatus',Field('CreationTime'),Field('IsDelete'),Field('Name'))\ndb.define_table('TypeOfTask',Field('CreationDate'),Field('IsDelete'),Field('Name'),Field('OrderId'))\n\n#########################################################################\n\n## after defining tables, uncomment below to enable auditing\n# auth.enable_record_versioning(db)\n"
p7
sS'snapshot'
p8
(dp9
sS'traceback'
p10
S'Traceback (most recent call last):\n  File "D:\\web2py\\gluon\\restricted.py", line 227, in restricted\n    exec ccode in environment\n  File "D:\\web2py\\applications\\bidding\\models\\db.py", line 13, in <module>\n    db = DAL(str_db,db_codec=\'utf-8\',migrate_enabled=False)\n  File "D:\\web2py\\gluon\\packages\\dal\\pydal\\base.py", line 174, in __call__\n    obj = super(MetaDAL, cls).__call__(*args, **kwargs)\n  File "D:\\web2py\\gluon\\packages\\dal\\pydal\\base.py", line 473, in __init__\n    "Failure to connect, tried %d times:\\n%s" % (attempts, tb)\nRuntimeError: Failure to connect, tried 5 times:\nTraceback (most recent call last):\n  File "D:\\web2py\\gluon\\packages\\dal\\pydal\\base.py", line 446, in __init__\n    self._adapter = ADAPTERS[self._dbname](**kwargs)\n  File "D:\\web2py\\gluon\\packages\\dal\\pydal\\adapters\\base.py", line 60, in __call__\n    obj = super(AdapterMeta, cls).__call__(*args, **kwargs)\n  File "D:\\web2py\\gluon\\packages\\dal\\pydal\\adapters\\mssql.py", line 159, in __init__\n    if do_connect: self.reconnect()\n  File "D:\\web2py\\gluon\\packages\\dal\\pydal\\connection.py", line 104, in reconnect\n    self.connection = f()\n  File "D:\\web2py\\gluon\\packages\\dal\\pydal\\adapters\\mssql.py", line 157, in connector\n    return self.driver.connect(cnxn, **driver_args)\nProgrammingError: (\'42000\', \'[42000] [Microsoft][ODBC SQL Server Driver][SQL Server]\\xce\\xde\\xb7\\xa8\\xb4\\xf2\\xbf\\xaa\\xb5\\xc7\\xc2\\xbc\\xcb\\xf9\\xc7\\xeb\\xc7\\xf3\\xb5\\xc4\\xca\\xfd\\xbe\\xdd\\xbf\\xe2 "BIDDING"\\xa1\\xa3\\xb5\\xc7\\xc2\\xbc\\xca\\xa7\\xb0\\xdc\\xa1\\xa3 (4060) (SQLDriverConnect); [01S00] [Microsoft][ODBC SQL Server Driver]\\xce\\xde\\xd0\\xa7\\xb5\\xc4\\xc1\\xac\\xbd\\xd3\\xd7\\xd6\\xb7\\xfb\\xb4\\xae\\xca\\xf4\\xd0\\xd4 (0); [42000] [Microsoft][ODBC SQL Server Driver][SQL Server]\\xce\\xde\\xb7\\xa8\\xb4\\xf2\\xbf\\xaa\\xb5\\xc7\\xc2\\xbc\\xcb\\xf9\\xc7\\xeb\\xc7\\xf3\\xb5\\xc4\\xca\\xfd\\xbe\\xdd\\xbf\\xe2 "BIDDING"\\xa1\\xa3\\xb5\\xc7\\xc2\\xbc\\xca\\xa7\\xb0\\xdc\\xa1\\xa3 (4060); [01S00] [Microsoft][ODBC SQL Server Driver]\\xce\\xde\\xd0\\xa7\\xb5\\xc4\\xc1\\xac\\xbd\\xd3\\xd7\\xd6\\xb7\\xfb\\xb4\\xae\\xca\\xf4\\xd0\\xd4 (0)\')\n\n'
p11
s.